; Function Attrs: nounwind uwtable
define void @POOL_add(ptr noundef %0, ptr noundef %1, ptr noundef %2) local_unnamed_addr #0 {
  %4 = getelementptr inbounds nuw i8, ptr %0, i64 96
  %5 = tail call i32 @pthread_mutex_lock(ptr noundef nonnull %4) #9
  %6 = getelementptr inbounds nuw i8, ptr %0, i64 72
  %7 = getelementptr inbounds nuw i8, ptr %0, i64 80
  %8 = getelementptr inbounds nuw i8, ptr %0, i64 40
  %9 = getelementptr inbounds nuw i8, ptr %0, i64 88
  %10 = getelementptr inbounds nuw i8, ptr %0, i64 56
  %11 = getelementptr inbounds nuw i8, ptr %0, i64 64
  %12 = getelementptr inbounds nuw i8, ptr %0, i64 232
  %13 = getelementptr inbounds nuw i8, ptr %0, i64 136
  br label %14

14:                                               ; preds = %29, %3
  %15 = load i64, ptr %6, align 8, !tbaa !8
  %16 = icmp ugt i64 %15, 1
  br i1 %16, label %17, label %23

17:                                               ; preds = %14
  %18 = load i64, ptr %10, align 8, !tbaa !28
  %19 = load i64, ptr %11, align 8, !tbaa !29
  %20 = add i64 %19, 1
  %21 = urem i64 %20, %15
  %22 = icmp eq i64 %18, %21
  br i1 %22, label %isQueueFull.exit.thread, label %.critedge

23:                                               ; preds = %14
  %24 = load i64, ptr %7, align 8, !tbaa !15
  %25 = load i64, ptr %8, align 8, !tbaa !24
  %26 = icmp eq i64 %24, %25
  br i1 %26, label %isQueueFull.exit.thread, label %isQueueFull.exit

isQueueFull.exit:                                 ; preds = %23
  %27 = load i32, ptr %9, align 8, !tbaa !16
  %.not.i = icmp eq i32 %27, 0
  br i1 %.not.i, label %isQueueFull.exit.thread, label %.critedge

isQueueFull.exit.thread:                          ; preds = %17, %23, %isQueueFull.exit
  %28 = load i32, ptr %12, align 8, !tbaa !17
  %.not9 = icmp eq i32 %28, 0
  br i1 %.not9, label %29, label %POOL_add_internal.exit

29:                                               ; preds = %isQueueFull.exit.thread
  %30 = tail call i32 @pthread_cond_wait(ptr noundef nonnull %13, ptr noundef nonnull %4) #9
  br label %14, !llvm.loop !32

.critedge:                                        ; preds = %isQueueFull.exit, %17
  %.pre = load i32, ptr %12, align 8, !tbaa !17
  %31 = icmp eq i32 %.pre, 0
  br i1 %31, label %32, label %POOL_add_internal.exit

32:                                               ; preds = %.critedge
  store i32 0, ptr %9, align 8, !tbaa !16
  %33 = getelementptr inbounds nuw i8, ptr %0, i64 48
  %34 = load ptr, ptr %33, align 8, !tbaa !14
  %35 = load i64, ptr %11, align 8, !tbaa !29
  %36 = getelementptr inbounds nuw %struct.POOL_job_s, ptr %34, i64 %35
  store ptr %1, ptr %36, align 8, !tbaa !21
  %.sroa.4.0..sroa_idx.i = getelementptr inbounds nuw i8, ptr %36, i64 8
  store ptr %2, ptr %.sroa.4.0..sroa_idx.i, align 8, !tbaa !21
  %37 = add i64 %35, 1
  %38 = urem i64 %37, %15
  store i64 %38, ptr %11, align 8, !tbaa !29
  %39 = getelementptr inbounds nuw i8, ptr %0, i64 184
  %40 = tail call i32 @pthread_cond_signal(ptr noundef nonnull %39) #9
  br label %POOL_add_internal.exit

POOL_add_internal.exit:                           ; preds = %isQueueFull.exit.thread, %.critedge, %32
  %41 = tail call i32 @pthread_mutex_unlock(ptr noundef nonnull %4) #9
  ret void
}